; Function Attrs: mustprogress uwtable
define hidden noundef ptr @_ZN17array_decl_plugin16mk_set_intersectEjPKP4sort(ptr noundef nonnull align 8 dereferenceable(136) %this, i32 noundef %arity, ptr nocapture noundef readonly %domain) local_unnamed_addr #3 align 2 personality ptr @__gxx_personality_v0 {
entry:
  %info = alloca %struct.func_decl_info, align 8
  %domain2 = alloca [2 x ptr], align 16
  %cmp = icmp eq i32 %arity, 0
  br i1 %cmp, label %if.then, label %if.end

if.then:                                          ; preds = %entry
  %m_manager = getelementptr inbounds i8, ptr %this, i64 8
  %0 = load ptr, ptr %m_manager, align 8
  tail call void @_ZN11ast_manager15raise_exceptionEPKc(ptr noundef nonnull align 8 dereferenceable(976) %0, ptr noundef nonnull @.str.57) #18
  unreachable

if.end:                                           ; preds = %entry
  %call = tail call noundef zeroext i1 @_ZN17array_decl_plugin19check_set_argumentsEjPKP4sort(ptr noundef nonnull align 8 dereferenceable(136) %this, i32 noundef %arity, ptr noundef %domain)
  %m_family_id = getelementptr inbounds i8, ptr %this, i64 16
  %1 = load i32, ptr %m_family_id, align 8
  call void @_ZN14func_decl_infoC1EiijPK9parameter(ptr noundef nonnull align 8 dereferenceable(19) %info, i32 noundef %1, i32 noundef 7, i32 noundef 0, ptr noundef null)
  %m_left_assoc.i = getelementptr inbounds i8, ptr %info, i64 17
  %bf.load.i = load i16, ptr %m_left_assoc.i, align 1
  %bf.set.i9 = or i16 %bf.load.i, 139
  store i16 %bf.set.i9, ptr %m_left_assoc.i, align 1
  %2 = load ptr, ptr %domain, align 8
  store ptr %2, ptr %domain2, align 16
  %arrayinit.element = getelementptr inbounds i8, ptr %domain2, i64 8
  store ptr %2, ptr %arrayinit.element, align 8
  %m_manager7 = getelementptr inbounds i8, ptr %this, i64 8
  %3 = load ptr, ptr %m_manager7, align 8
  %m_set_intersect_sym = getelementptr inbounds i8, ptr %this, i64 72
  %call3.i11 = invoke noundef ptr @_ZN11ast_manager12mk_func_declERK6symboljPKP4sortS4_P14func_decl_info(ptr noundef nonnull align 8 dereferenceable(976) %3, ptr noundef nonnull align 8 dereferenceable(8) %m_set_intersect_sym, i32 noundef 2, ptr noundef nonnull %domain2, ptr noundef %2, ptr noundef nonnull %info)
          to label %invoke.cont9 unwind label %lpad

invoke.cont9:                                     ; preds = %if.end
  %m_parameters.i.i = getelementptr inbounds i8, ptr %info, i64 8
  %4 = load ptr, ptr %m_parameters.i.i, align 8
  %tobool.not.i.i.i.i = icmp eq ptr %4, null
  br i1 %tobool.not.i.i.i.i, label %_ZN14func_decl_infoD2Ev.exit, label %_ZNK6vectorI9parameterLb1EjE4sizeEv.exit.i.i.i.i.i

_ZNK6vectorI9parameterLb1EjE4sizeEv.exit.i.i.i.i.i: ; preds = %invoke.cont9
  %arrayidx.i.i.i.i.i.i = getelementptr inbounds i8, ptr %4, i64 -4
  %5 = load i32, ptr %arrayidx.i.i.i.i.i.i, align 4
  %cmp.not4.i.i.i.i.i.i.i.i = icmp eq i32 %5, 0
  br i1 %cmp.not4.i.i.i.i.i.i.i.i, label %_ZN6vectorI9parameterLb1EjE16destroy_elementsEv.exit.i.i.i.i, label %for.body.i.i.i.i.i.i.i.i

for.body.i.i.i.i.i.i.i.i:                         ; preds = %_ZNK6vectorI9parameterLb1EjE4sizeEv.exit.i.i.i.i.i, %for.body.i.i.i.i.i.i.i.i
  %__count.addr.06.i.i.i.i.i.i.i.i = phi i32 [ %dec.i.i.i.i.i.i.i.i, %for.body.i.i.i.i.i.i.i.i ], [ %5, %_ZNK6vectorI9parameterLb1EjE4sizeEv.exit.i.i.i.i.i ]
  %__first.addr.05.i.i.i.i.i.i.i.i = phi ptr [ %incdec.ptr.i.i.i.i.i.i.i.i, %for.body.i.i.i.i.i.i.i.i ], [ %4, %_ZNK6vectorI9parameterLb1EjE4sizeEv.exit.i.i.i.i.i ]
  call void @_ZN9parameterD1Ev(ptr noundef nonnull align 8 dereferenceable(16) %__first.addr.05.i.i.i.i.i.i.i.i) #19
  %incdec.ptr.i.i.i.i.i.i.i.i = getelementptr inbounds i8, ptr %__first.addr.05.i.i.i.i.i.i.i.i, i64 16
  %dec.i.i.i.i.i.i.i.i = add i32 %__count.addr.06.i.i.i.i.i.i.i.i, -1
  %cmp.not.i.i.i.i.i.i.i.i = icmp eq i32 %dec.i.i.i.i.i.i.i.i, 0
  br i1 %cmp.not.i.i.i.i.i.i.i.i, label %_ZN6vectorI9parameterLb1EjE16destroy_elementsEv.exit.loopexit.i.i.i.i, label %for.body.i.i.i.i.i.i.i.i, !llvm.loop !6

_ZN6vectorI9parameterLb1EjE16destroy_elementsEv.exit.loopexit.i.i.i.i: ; preds = %for.body.i.i.i.i.i.i.i.i
  %.pre.i.i.i.i = load ptr, ptr %m_parameters.i.i, align 8
  br label %_ZN6vectorI9parameterLb1EjE16destroy_elementsEv.exit.i.i.i.i

_ZN6vectorI9parameterLb1EjE16destroy_elementsEv.exit.i.i.i.i: ; preds = %_ZN6vectorI9parameterLb1EjE16destroy_elementsEv.exit.loopexit.i.i.i.i, %_ZNK6vectorI9parameterLb1EjE4sizeEv.exit.i.i.i.i.i
  %6 = phi ptr [ %.pre.i.i.i.i, %_ZN6vectorI9parameterLb1EjE16destroy_elementsEv.exit.loopexit.i.i.i.i ], [ %4, %_ZNK6vectorI9parameterLb1EjE4sizeEv.exit.i.i.i.i.i ]
  %add.ptr.i.i.i.i.i = getelementptr inbounds i8, ptr %6, i64 -8
  invoke void @_ZN6memory10deallocateEPv(ptr noundef nonnull %add.ptr.i.i.i.i.i)
          to label %_ZN14func_decl_infoD2Ev.exit unwind label %terminate.lpad.i.i.i

terminate.lpad.i.i.i:                             ; preds = %_ZN6vectorI9parameterLb1EjE16destroy_elementsEv.exit.i.i.i.i
  %7 = landingpad { ptr, i32 }
          catch ptr null
  %8 = extractvalue { ptr, i32 } %7, 0
  call void @__clang_call_terminate(ptr %8) #20
  unreachable

_ZN14func_decl_infoD2Ev.exit:                     ; preds = %invoke.cont9, %_ZN6vectorI9parameterLb1EjE16destroy_elementsEv.exit.i.i.i.i
  ret ptr %call3.i11

lpad:                                             ; preds = %if.end
  %9 = landingpad { ptr, i32 }
          cleanup
  call void @_ZN14func_decl_infoD2Ev(ptr noundef nonnull align 8 dereferenceable(19) %info) #19
  resume { ptr, i32 } %9
}